target datalayout = "e-m:e-p270:32:32-p271:32:32-p272:64:64-i64:64-i128:128-f80:128-n8:16:32:64-S128"
target triple = "x86_64-pc-linux-gnu"

%"class.LIEF::MachO::LoadCommand" = type { %"class.LIEF::Object", %"class.std::vector", i64, i32, i64 }
%"class.LIEF::Object" = type { ptr }
%"class.std::vector" = type { %"struct.std::_Vector_base" }
%"struct.std::_Vector_base" = type { %"struct.std::_Vector_base<unsigned char, std::allocator<unsigned char>>::_Vector_impl" }
%"struct.std::_Vector_base<unsigned char, std::allocator<unsigned char>>::_Vector_impl" = type { %"struct.std::_Vector_base<unsigned char, std::allocator<unsigned char>>::_Vector_impl_data" }
%"struct.std::_Vector_base<unsigned char, std::allocator<unsigned char>>::_Vector_impl_data" = type { ptr, ptr, ptr }
%"class.LIEF::MachO::VersionMin" = type { %"class.LIEF::MachO::LoadCommand", %"struct.std::array", %"struct.std::array" }
%"struct.std::array" = type { [3 x i32] }
%"struct.LIEF::MachO::details::version_min_command" = type { i32, i32, i32, i32 }

; Function Attrs: mustprogress uwtable
define void @_ZN4LIEF5MachO10VersionMinC2ERKNS0_7details19version_min_commandE(ptr noundef nonnull align 8 dereferenceable(80) %0, ptr noundef nonnull align 4 dereferenceable(16) %1) unnamed_addr #0 align 2 {
  %3 = alloca ptr, align 8
  %4 = alloca ptr, align 8
  store ptr %0, ptr %3, align 8
  store ptr %1, ptr %4, align 8
  %5 = load ptr, ptr %3, align 8
  %6 = load ptr, ptr %4, align 8
  %7 = getelementptr inbounds %"struct.LIEF::MachO::details::version_min_command", ptr %6, i32 0, i32 0
  %8 = load i32, ptr %7, align 4
  %9 = zext i32 %8 to i64
  %10 = load ptr, ptr %4, align 8
  %11 = getelementptr inbounds %"struct.LIEF::MachO::details::version_min_command", ptr %10, i32 0, i32 1
  %12 = load i32, ptr %11, align 4
  call void @_ZN4LIEF5MachO11LoadCommandC2ENS0_18LOAD_COMMAND_TYPESEj(ptr noundef nonnull align 8 dereferenceable(56) %5, i64 noundef %9, i32 noundef %12)
  store ptr getelementptr inbounds ({ [9 x ptr] }, ptr @_ZTVN4LIEF5MachO10VersionMinE, i32 0, i32 0, i32 2), ptr %5, align 8
  %13 = getelementptr inbounds %"class.LIEF::MachO::VersionMin", ptr %5, i32 0, i32 1
  %14 = getelementptr inbounds %"struct.std::array", ptr %13, i32 0, i32 0
  %15 = getelementptr inbounds [3 x i32], ptr %14, i64 0, i64 0
  %16 = load ptr, ptr %4, align 8
  %17 = getelementptr inbounds %"struct.LIEF::MachO::details::version_min_command", ptr %16, i32 0, i32 2
  %18 = load i32, ptr %17, align 4
  %19 = lshr i32 %18, 16
  %20 = and i32 %19, 65535
  store i32 %20, ptr %15, align 4
  %21 = getelementptr inbounds i32, ptr %15, i64 1
  %22 = load ptr, ptr %4, align 8
  %23 = getelementptr inbounds %"struct.LIEF::MachO::details::version_min_command", ptr %22, i32 0, i32 2
  %24 = load i32, ptr %23, align 4
  %25 = lshr i32 %24, 8
  %26 = and i32 %25, 255
  store i32 %26, ptr %21, align 4
  %27 = getelementptr inbounds i32, ptr %21, i64 1
  %28 = load ptr, ptr %4, align 8
  %29 = getelementptr inbounds %"struct.LIEF::MachO::details::version_min_command", ptr %28, i32 0, i32 2
  %30 = load i32, ptr %29, align 4
  %31 = lshr i32 %30, 0
  %32 = and i32 %31, 255
  store i32 %32, ptr %27, align 4
  %33 = getelementptr inbounds %"class.LIEF::MachO::VersionMin", ptr %5, i32 0, i32 2
  %34 = getelementptr inbounds %"struct.std::array", ptr %33, i32 0, i32 0
  %35 = getelementptr inbounds [3 x i32], ptr %34, i64 0, i64 0
  %36 = load ptr, ptr %4, align 8
  %37 = getelementptr inbounds %"struct.LIEF::MachO::details::version_min_command", ptr %36, i32 0, i32 3
  %38 = load i32, ptr %37, align 4
  %39 = lshr i32 %38, 16
  %40 = and i32 %39, 65535
  store i32 %40, ptr %35, align 4
  %41 = getelementptr inbounds i32, ptr %35, i64 1
  %42 = load ptr, ptr %4, align 8
  %43 = getelementptr inbounds %"struct.LIEF::MachO::details::version_min_command", ptr %42, i32 0, i32 3
  %44 = load i32, ptr %43, align 4
  %45 = lshr i32 %44, 8
  %46 = and i32 %45, 255
  store i32 %46, ptr %41, align 4
  %47 = getelementptr inbounds i32, ptr %41, i64 1
  %48 = load ptr, ptr %4, align 8
  %49 = getelementptr inbounds %"struct.LIEF::MachO::details::version_min_command", ptr %48, i32 0, i32 3
  %50 = load i32, ptr %49, align 4
  %51 = lshr i32 %50, 0
  %52 = and i32 %51, 255
  store i32 %52, ptr %47, align 4
  ret void
}