; Function Attrs: mustprogress uwtable
define void @_ZN4LIEF5MachO10VersionMinC2ERKNS0_7details19version_min_commandE(ptr noundef nonnull align 8 dereferenceable(80) %0, ptr nocapture noundef nonnull readonly align 4 dereferenceable(16) %1) unnamed_addr #0 align 2 {
  %3 = load i32, ptr %1, align 4
  %4 = zext i32 %3 to i64
  %5 = getelementptr inbounds i8, ptr %1, i64 4
  %6 = load i32, ptr %5, align 4
  tail call void @_ZN4LIEF5MachO11LoadCommandC2ENS0_18LOAD_COMMAND_TYPESEj(ptr noundef nonnull align 8 dereferenceable(56) %0, i64 noundef %4, i32 noundef %6)
  store ptr getelementptr inbounds ({ [9 x ptr] }, ptr @_ZTVN4LIEF5MachO10VersionMinE, i64 0, i32 0, i64 2), ptr %0, align 8
  %7 = getelementptr inbounds i8, ptr %0, i64 56
  %8 = getelementptr inbounds i8, ptr %1, i64 8
  %9 = load i32, ptr %8, align 4
  %10 = lshr i32 %9, 16
  store i32 %10, ptr %7, align 8
  %11 = getelementptr inbounds i8, ptr %0, i64 60
  %12 = load i32, ptr %8, align 4
  %13 = lshr i32 %12, 8
  %14 = and i32 %13, 255
  store i32 %14, ptr %11, align 4
  %15 = getelementptr inbounds i8, ptr %0, i64 64
  %16 = load i32, ptr %8, align 4
  %17 = and i32 %16, 255
  store i32 %17, ptr %15, align 8
  %18 = getelementptr inbounds i8, ptr %0, i64 68
  %19 = getelementptr inbounds i8, ptr %1, i64 12
  %20 = load i32, ptr %19, align 4
  %21 = lshr i32 %20, 16
  store i32 %21, ptr %18, align 4
  %22 = getelementptr inbounds i8, ptr %0, i64 72
  %23 = load i32, ptr %19, align 4
  %24 = lshr i32 %23, 8
  %25 = and i32 %24, 255
  store i32 %25, ptr %22, align 8
  %26 = getelementptr inbounds i8, ptr %0, i64 76
  %27 = load i32, ptr %19, align 4
  %28 = and i32 %27, 255
  store i32 %28, ptr %26, align 4
  ret void
}